; Function Attrs: nounwind uwtable
define dso_local ptr @skip(ptr nocapture noundef readonly %tok, ptr noundef %op) local_unnamed_addr #4 {
entry:
  %loc.i = getelementptr inbounds %struct.Token, ptr %tok, i64 0, i32 4
  %0 = load ptr, ptr %loc.i, align 16
  %len.i = getelementptr inbounds %struct.Token, ptr %tok, i64 0, i32 5
  %1 = load i32, ptr %len.i, align 8
  %conv.i = sext i32 %1 to i64
  %bcmp.i = tail call i32 @bcmp(ptr %0, ptr %op, i64 %conv.i)
  %cmp.i = icmp eq i32 %bcmp.i, 0
  br i1 %cmp.i, label %equal.exit, label %if.then

equal.exit:                                       ; preds = %entry
  %arrayidx.i = getelementptr inbounds i8, ptr %op, i64 %conv.i
  %2 = load i8, ptr %arrayidx.i, align 1
  %cmp4.i = icmp eq i8 %2, 0
  br i1 %cmp4.i, label %if.end, label %if.then

if.then:                                          ; preds = %entry, %equal.exit
  tail call void (ptr, ptr, ...) @error_tok(ptr noundef nonnull %tok, ptr noundef nonnull @.str.1, ptr noundef %op) #26
  unreachable

if.end:                                           ; preds = %equal.exit
  %next = getelementptr inbounds %struct.Token, ptr %tok, i64 0, i32 1
  %3 = load ptr, ptr %next, align 8
  ret ptr %3
}